target datalayout = "e-m:e-p270:32:32-p271:32:32-p272:64:64-i64:64-i128:128-f80:128-n8:16:32:64-S128"
target triple = "x86_64-pc-linux-gnu"

%"class.gmx::AnalysisDataHandle" = type { ptr }
%"class.gmx::internal::AnalysisDataHandleImpl" = type { ptr, ptr }
%class.anon.49 = type { i8 }
%class.anon.51 = type { i8 }

@.str.2 = private unnamed_addr constant [135 x i8] c"generated/home/dtcxzyw/WorkSpace/Projects/compilers/llvm-opt-benchmark/bench/gromacs/gromacs/src/gromacs/analysisdata/analysisdata.cpp\00", align 1
@.str.9 = private unnamed_addr constant [17 x i8] c"impl_ != nullptr\00", align 1
@.str.10 = private unnamed_addr constant [25 x i8] c"Invalid data handle used\00", align 1
@"__PRETTY_FUNCTION__._ZZN3gmx18AnalysisDataHandle13selectDataSetEiENK3$_0clEv" = private unnamed_addr constant [88 x i8] c"auto gmx::AnalysisDataHandle::selectDataSet(int)::(anonymous class)::operator()() const\00", align 1
@.str.13 = private unnamed_addr constant [32 x i8] c"impl_->currentFrame_ != nullptr\00", align 1
@.str.14 = private unnamed_addr constant [52 x i8] c"selectDataSet() called without calling startFrame()\00", align 1

; Function Attrs: inlinehint mustprogress uwtable
define internal void @"_ZZN3gmx18AnalysisDataHandle13selectDataSetEiENK3$_1clEv"(ptr noundef nonnull align 1 dereferenceable(1) %0) #4 align 2 {
  %2 = alloca ptr, align 8
  store ptr %0, ptr %2, align 8, !tbaa !78
  call void @_ZN3gmx8internal13assertHandlerEPKcS2_S2_S2_i(ptr noundef @.str.13, ptr noundef @.str.14, ptr noundef @"__PRETTY_FUNCTION__._ZZN3gmx18AnalysisDataHandle13selectDataSetEiENK3$_0clEv", ptr noundef @.str.2, i32 noundef 231) #17
  unreachable
}

; Function Attrs: inlinehint mustprogress uwtable
define internal void @"_ZZN3gmx18AnalysisDataHandle13selectDataSetEiENK3$_0clEv"(ptr noundef nonnull align 1 dereferenceable(1) %0) #4 align 2 {
  %2 = alloca ptr, align 8
  store ptr %0, ptr %2, align 8, !tbaa !78
  call void @_ZN3gmx8internal13assertHandlerEPKcS2_S2_S2_i(ptr noundef @.str.9, ptr noundef @.str.10, ptr noundef @"__PRETTY_FUNCTION__._ZZN3gmx18AnalysisDataHandle13selectDataSetEiENK3$_0clEv", ptr noundef @.str.2, i32 noundef 229) #17
  unreachable
}

; Function Attrs: mustprogress uwtable
define void @_ZN3gmx18AnalysisDataHandle13selectDataSetEi(ptr noundef nonnull align 8 dereferenceable(8) %0, i32 noundef %1) #1 align 2 {
  %3 = alloca ptr, align 8
  %4 = alloca i32, align 4
  %5 = alloca %class.anon.49, align 1
  %6 = alloca %class.anon.51, align 1
  store ptr %0, ptr %3, align 8, !tbaa !115
  store i32 %1, ptr %4, align 4, !tbaa !9
  %7 = load ptr, ptr %3, align 8
  %8 = getelementptr inbounds nuw %"class.gmx::AnalysisDataHandle", ptr %7, i32 0, i32 0
  %9 = load ptr, ptr %8, align 8, !tbaa !111
  %10 = icmp ne ptr %9, null
  call void @llvm.lifetime.start.p0(i64 1, ptr %5) #13
  br i1 %10, label %11, label %12

11:                                               ; preds = %2
  br label %13

12:                                               ; preds = %2
  call void @"_ZZN3gmx18AnalysisDataHandle13selectDataSetEiENK3$_0clEv"(ptr noundef nonnull align 1 dereferenceable(1) %5)
  br label %13

13:                                               ; preds = %12, %11
  call void @llvm.lifetime.end.p0(i64 1, ptr %5) #13
  %14 = getelementptr inbounds nuw %"class.gmx::AnalysisDataHandle", ptr %7, i32 0, i32 0
  %15 = load ptr, ptr %14, align 8, !tbaa !111
  %16 = getelementptr inbounds nuw %"class.gmx::internal::AnalysisDataHandleImpl", ptr %15, i32 0, i32 1
  %17 = load ptr, ptr %16, align 8, !tbaa !93
  %18 = icmp ne ptr %17, null
  call void @llvm.lifetime.start.p0(i64 1, ptr %6) #13
  br i1 %18, label %19, label %20

19:                                               ; preds = %13
  br label %21

20:                                               ; preds = %13
  call void @"_ZZN3gmx18AnalysisDataHandle13selectDataSetEiENK3$_1clEv"(ptr noundef nonnull align 1 dereferenceable(1) %6)
  br label %21

21:                                               ; preds = %20, %19
  call void @llvm.lifetime.end.p0(i64 1, ptr %6) #13
  %22 = getelementptr inbounds nuw %"class.gmx::AnalysisDataHandle", ptr %7, i32 0, i32 0
  %23 = load ptr, ptr %22, align 8, !tbaa !111
  %24 = getelementptr inbounds nuw %"class.gmx::internal::AnalysisDataHandleImpl", ptr %23, i32 0, i32 1
  %25 = load ptr, ptr %24, align 8, !tbaa !93
  %26 = load i32, ptr %4, align 4, !tbaa !9
  call void @_ZN3gmx24AnalysisDataStorageFrame13selectDataSetEi(ptr noundef nonnull align 8 dereferenceable(45) %25, i32 noundef %26)
  ret void
}