; Function Attrs: mustprogress uwtable
define void @_ZN3gmx18AnalysisDataHandle13selectDataSetEi(ptr noundef nonnull readonly align 8 captures(none) dereferenceable(8) %0, i32 noundef %1) local_unnamed_addr #1 align 2 {
  %3 = load ptr, ptr %0, align 8, !tbaa !37
  %.not = icmp eq ptr %3, null
  br i1 %.not, label %4, label %5

4:                                                ; preds = %2
  tail call void @_ZN3gmx8internal13assertHandlerEPKcS2_S2_S2_i(ptr noundef nonnull @.str.9, ptr noundef nonnull @.str.10, ptr noundef nonnull @"__PRETTY_FUNCTION__._ZZN3gmx18AnalysisDataHandle13selectDataSetEiENK3$_0clEv", ptr noundef nonnull @.str.2, i32 noundef 229) #15
  unreachable

5:                                                ; preds = %2
  %6 = getelementptr inbounds nuw i8, ptr %3, i64 8
  %7 = load ptr, ptr %6, align 8, !tbaa !26
  %.not1 = icmp eq ptr %7, null
  br i1 %.not1, label %8, label %9

8:                                                ; preds = %5
  tail call void @_ZN3gmx8internal13assertHandlerEPKcS2_S2_S2_i(ptr noundef nonnull @.str.13, ptr noundef nonnull @.str.14, ptr noundef nonnull @"__PRETTY_FUNCTION__._ZZN3gmx18AnalysisDataHandle13selectDataSetEiENK3$_0clEv", ptr noundef nonnull @.str.2, i32 noundef 231) #15
  unreachable

9:                                                ; preds = %5
  tail call void @_ZN3gmx24AnalysisDataStorageFrame13selectDataSetEi(ptr noundef nonnull align 8 dereferenceable(45) %7, i32 noundef %1)
  ret void
}